; Function Attrs: nounwind uwtable
define ptr @SXNET_get_id_asc(ptr noundef readonly captures(none) %0, ptr noundef %1) local_unnamed_addr #1 {
  %3 = tail call ptr @s2i_ASN1_INTEGER(ptr noundef null, ptr noundef %1) #5
  %4 = icmp eq ptr %3, null
  br i1 %4, label %5, label %6

5:                                                ; preds = %2
  tail call void @ERR_new() #5
  tail call void @ERR_set_debug(ptr noundef nonnull @.str.2, i32 noundef 225, ptr noundef nonnull @__func__.SXNET_get_id_asc) #5
  tail call void (i32, i32, ptr, ...) @ERR_set_error(i32 noundef 34, i32 noundef 131, ptr noundef null) #5
  br label %23

6:                                                ; preds = %2
  %7 = getelementptr inbounds nuw i8, ptr %0, i64 8
  %8 = load ptr, ptr %7, align 8, !tbaa !18
  %9 = tail call i32 @OPENSSL_sk_num(ptr noundef %8) #5
  %10 = icmp sgt i32 %9, 0
  br i1 %10, label %.lr.ph.i, label %SXNET_get_id_INTEGER.exit

11:                                               ; preds = %.lr.ph.i
  %12 = add nuw nsw i32 %.09.i, 1
  %13 = load ptr, ptr %7, align 8, !tbaa !18
  %14 = tail call i32 @OPENSSL_sk_num(ptr noundef %13) #5
  %15 = icmp slt i32 %12, %14
  br i1 %15, label %.lr.ph.i, label %SXNET_get_id_INTEGER.exit, !llvm.loop !23

.lr.ph.i:                                         ; preds = %6, %11
  %.09.i = phi i32 [ %12, %11 ], [ 0, %6 ]
  %16 = load ptr, ptr %7, align 8, !tbaa !18
  %17 = tail call ptr @OPENSSL_sk_value(ptr noundef %16, i32 noundef %.09.i) #5
  %18 = load ptr, ptr %17, align 8, !tbaa !19
  %19 = tail call i32 @ASN1_INTEGER_cmp(ptr noundef %18, ptr noundef nonnull %3) #5
  %.not.i = icmp eq i32 %19, 0
  br i1 %.not.i, label %20, label %11

20:                                               ; preds = %.lr.ph.i
  %21 = getelementptr inbounds nuw i8, ptr %17, i64 8
  %22 = load ptr, ptr %21, align 8, !tbaa !21
  br label %SXNET_get_id_INTEGER.exit

SXNET_get_id_INTEGER.exit:                        ; preds = %11, %6, %20
  %.08.i = phi ptr [ %22, %20 ], [ null, %6 ], [ null, %11 ]
  tail call void @ASN1_INTEGER_free(ptr noundef nonnull %3) #5
  br label %23

23:                                               ; preds = %SXNET_get_id_INTEGER.exit, %5
  %.0 = phi ptr [ null, %5 ], [ %.08.i, %SXNET_get_id_INTEGER.exit ]
  ret ptr %.0
}